target datalayout = "e-m:e-p270:32:32-p271:32:32-p272:64:64-i64:64-i128:128-f80:128-n8:16:32:64-S128"
target triple = "x86_64-pc-linux-gnu"

; Function Attrs: nounwind uwtable
define internal i64 @parse_uint(ptr noundef %0, i64 noundef %1) #0 {
  %3 = alloca i64, align 8
  %4 = alloca ptr, align 8
  %5 = alloca i64, align 8
  %6 = alloca i64, align 8
  %7 = alloca i64, align 8
  %8 = alloca i32, align 4
  store ptr %0, ptr %4, align 8, !tbaa !57
  store i64 %1, ptr %5, align 8, !tbaa !22
  call void @llvm.lifetime.start.p0(i64 8, ptr %6) #6
  store i64 0, ptr %6, align 8, !tbaa !22
  call void @llvm.lifetime.start.p0(i64 8, ptr %7) #6
  %9 = load i64, ptr %5, align 8, !tbaa !22
  %10 = icmp eq i64 %9, 0
  br i1 %10, label %11, label %12

11:                                               ; preds = %2
  store i64 -1, ptr %3, align 8
  store i32 1, ptr %8, align 4
  br label %65

12:                                               ; preds = %2
  store i64 0, ptr %7, align 8, !tbaa !22
  br label %13

13:                                               ; preds = %60, %12
  %14 = load i64, ptr %7, align 8, !tbaa !22
  %15 = load i64, ptr %5, align 8, !tbaa !22
  %16 = icmp ult i64 %14, %15
  br i1 %16, label %17, label %63

17:                                               ; preds = %13
  %18 = load ptr, ptr %4, align 8, !tbaa !57
  %19 = load i64, ptr %7, align 8, !tbaa !22
  %20 = getelementptr inbounds nuw i8, ptr %18, i64 %19
  %21 = load i8, ptr %20, align 1, !tbaa !21
  %22 = zext i8 %21 to i32
  %23 = icmp sle i32 48, %22
  br i1 %23, label %24, label %59

24:                                               ; preds = %17
  %25 = load ptr, ptr %4, align 8, !tbaa !57
  %26 = load i64, ptr %7, align 8, !tbaa !22
  %27 = getelementptr inbounds nuw i8, ptr %25, i64 %26
  %28 = load i8, ptr %27, align 1, !tbaa !21
  %29 = zext i8 %28 to i32
  %30 = icmp sle i32 %29, 57
  br i1 %30, label %31, label %59

31:                                               ; preds = %24
  %32 = load i64, ptr %6, align 8, !tbaa !22
  %33 = icmp sgt i64 %32, 922337203685477580
  br i1 %33, label %34, label %35

34:                                               ; preds = %31
  store i64 -1, ptr %3, align 8
  store i32 1, ptr %8, align 4
  br label %65

35:                                               ; preds = %31
  %36 = load i64, ptr %6, align 8, !tbaa !22
  %37 = mul nsw i64 %36, 10
  store i64 %37, ptr %6, align 8, !tbaa !22
  %38 = load i64, ptr %6, align 8, !tbaa !22
  %39 = load ptr, ptr %4, align 8, !tbaa !57
  %40 = load i64, ptr %7, align 8, !tbaa !22
  %41 = getelementptr inbounds nuw i8, ptr %39, i64 %40
  %42 = load i8, ptr %41, align 1, !tbaa !21
  %43 = zext i8 %42 to i32
  %44 = sub nsw i32 %43, 48
  %45 = sext i32 %44 to i64
  %46 = sub nsw i64 9223372036854775807, %45
  %47 = icmp sgt i64 %38, %46
  br i1 %47, label %48, label %49

48:                                               ; preds = %35
  store i64 -1, ptr %3, align 8
  store i32 1, ptr %8, align 4
  br label %65

49:                                               ; preds = %35
  %50 = load ptr, ptr %4, align 8, !tbaa !57
  %51 = load i64, ptr %7, align 8, !tbaa !22
  %52 = getelementptr inbounds nuw i8, ptr %50, i64 %51
  %53 = load i8, ptr %52, align 1, !tbaa !21
  %54 = zext i8 %53 to i32
  %55 = sub nsw i32 %54, 48
  %56 = sext i32 %55 to i64
  %57 = load i64, ptr %6, align 8, !tbaa !22
  %58 = add nsw i64 %57, %56
  store i64 %58, ptr %6, align 8, !tbaa !22
  br label %60

59:                                               ; preds = %24, %17
  store i64 -1, ptr %3, align 8
  store i32 1, ptr %8, align 4
  br label %65

60:                                               ; preds = %49
  %61 = load i64, ptr %7, align 8, !tbaa !22
  %62 = add i64 %61, 1
  store i64 %62, ptr %7, align 8, !tbaa !22
  br label %13, !llvm.loop !84

63:                                               ; preds = %13
  %64 = load i64, ptr %6, align 8, !tbaa !22
  store i64 %64, ptr %3, align 8
  store i32 1, ptr %8, align 4
  br label %65

65:                                               ; preds = %63, %59, %48, %34, %11
  call void @llvm.lifetime.end.p0(i64 8, ptr %7) #6
  call void @llvm.lifetime.end.p0(i64 8, ptr %6) #6
  %66 = load i64, ptr %3, align 8
  ret i64 %66
}