; Function Attrs: nofree norecurse nosync nounwind memory(argmem: read) uwtable
define internal fastcc i64 @parse_uint(ptr noundef readonly captures(none) %0, i64 noundef %1) unnamed_addr #7 {
  %3 = icmp eq i64 %1, 0
  br i1 %3, label %.loopexit, label %.preheader

.preheader:                                       ; preds = %2, %14
  %.024 = phi i64 [ %16, %14 ], [ 0, %2 ]
  %.01723 = phi i64 [ %15, %14 ], [ 0, %2 ]
  %4 = getelementptr inbounds nuw i8, ptr %0, i64 %.024
  %5 = load i8, ptr %4, align 1, !tbaa !15
  %6 = add i8 %5, -58
  %or.cond = icmp ult i8 %6, -10
  %7 = icmp sgt i64 %.01723, 922337203685477580
  %or.cond22 = select i1 %or.cond, i1 true, i1 %7
  br i1 %or.cond22, label %.loopexit, label %8

8:                                                ; preds = %.preheader
  %9 = mul nsw i64 %.01723, 10
  %10 = and i8 %5, 15
  %11 = zext nneg i8 %10 to i64
  %12 = xor i64 %11, 9223372036854775807
  %13 = icmp sgt i64 %9, %12
  br i1 %13, label %.loopexit, label %14

14:                                               ; preds = %8
  %15 = add nsw i64 %9, %11
  %16 = add nuw i64 %.024, 1
  %exitcond.not = icmp eq i64 %16, %1
  br i1 %exitcond.not, label %.loopexit, label %.preheader, !llvm.loop !58

.loopexit:                                        ; preds = %14, %.preheader, %8, %2
  %.018 = phi i64 [ -1, %2 ], [ %15, %14 ], [ -1, %.preheader ], [ -1, %8 ]
  ret i64 %.018
}